target datalayout = "e-m:e-p270:32:32-p271:32:32-p272:64:64-i64:64-i128:128-f80:128-n8:16:32:64-S128"
target triple = "x86_64-pc-linux-gnu"

%struct.job_record = type { i32, ptr, ptr, ptr, ptr, i16, i32, i32, i32, ptr, i32, ptr, ptr, i16, ptr, double, i64, ptr, ptr, ptr, ptr, ptr, ptr, i32, ptr, i32, i64, i64, i32, i32, ptr, i16, i64, i64, i8, i32, ptr, ptr, ptr, ptr, ptr, ptr, ptr, ptr, i32, ptr, ptr, i32, ptr, i32, ptr, i32, ptr, i32, ptr, ptr, ptr, ptr, ptr, ptr, i32, i16, i64, ptr, ptr, ptr, ptr, %struct.acct_policy_limit_set_t, i16, ptr, ptr, ptr, ptr, ptr, i32, ptr, ptr, ptr, ptr, ptr, i32, i32, ptr, ptr, ptr, i16, ptr, ptr, i8, ptr, ptr, i64, i64, i8, i32, i32, i8, i32, ptr, i32, i64, i32, ptr, ptr, ptr, i8, i16, i64, i32, ptr, ptr, ptr, ptr, ptr, i16, i32, ptr, ptr, ptr, ptr, i32, ptr, i32, i16, i64, ptr, i32, i32, ptr, i64, ptr, ptr, i64, i32, i32, i64, i32, i32, ptr, ptr, ptr, ptr, ptr, ptr, ptr, ptr, ptr, ptr, ptr, ptr, i32, ptr, i16, i16, i16, i16, ptr, i32, i32, i8, i64 }
%struct.acct_policy_limit_set_t = type { i16, i16, ptr }
%struct.job_details_t = type { i32, ptr, i64, ptr, i32, ptr, i64, ptr, i16, i16, ptr, i16, i32, i32, i32, i16, ptr, i16, ptr, ptr, ptr, i16, ptr, ptr, ptr, ptr, i32, ptr, ptr, ptr, ptr, ptr, i32, i32, i32, ptr, ptr, i16, i32, i32, i32, i32, i32, i32, i16, i16, i32, i8, i8, i32, i32, i64, i64, i16, i32, ptr, ptr, i8, ptr, i32, ptr, i64, ptr, ptr, i16, i16, i16, i8, ptr, ptr, ptr, ptr, ptr, ptr, i64, i32, i32, i8, ptr, i16, ptr, ptr, i16 }
%struct.topology_eval = type { ptr, i16, ptr, i16, i8, ptr, i8, i8, ptr, i32, ptr, i32, ptr, i8, i32, i8 }
%struct.avail_res = type { i16, i16, i16, ptr, i32, i32, i16, i16, i16, ptr, i16, i16 }
%struct.node_record = type { ptr, ptr, i16, i64, i64, ptr, ptr, ptr, i16, ptr, i16, i16, i32, i32, i64, ptr, i16, i16, ptr, ptr, ptr, ptr, ptr, i64, i64, ptr, ptr, ptr, ptr, i32, ptr, ptr, i64, i64, i32, ptr, i64, ptr, i32, i16, ptr, ptr, i32, ptr, i32, i8, ptr, i32, i16, i16, ptr, i16, i64, i16, i64, ptr, i64, i32, i16, i64, i16, ptr, i16, i64, ptr, i64, i16, i32, i16, ptr, ptr, ptr, i16, i32, i16, i16, i32, ptr, i16, i32 }

@node_record_table_ptr = external global ptr, align 8

; Function Attrs: nounwind uwtable
define dso_local zeroext i1 @eval_nodes_cpus_to_use(ptr noundef %0, i32 noundef %1, i64 noundef %2, i32 noundef %3, ptr noundef %4, i1 noundef zeroext %5) #0 {
  %7 = alloca i1, align 1
  %8 = alloca ptr, align 8
  %9 = alloca i32, align 4
  %10 = alloca i64, align 8
  %11 = alloca i32, align 4
  %12 = alloca ptr, align 8
  %13 = alloca i8, align 1
  %14 = alloca ptr, align 8
  %15 = alloca ptr, align 8
  %16 = alloca ptr, align 8
  %17 = alloca i32, align 4
  %18 = alloca ptr, align 8
  %19 = alloca i32, align 4
  store ptr %0, ptr %8, align 8
  store i32 %1, ptr %9, align 4
  store i64 %2, ptr %10, align 8
  store i32 %3, ptr %11, align 4
  store ptr %4, ptr %12, align 8
  %20 = zext i1 %5 to i8
  store i8 %20, ptr %13, align 1
  call void @llvm.lifetime.start.p0(i64 8, ptr %14) #4
  %21 = load ptr, ptr %8, align 8
  %22 = getelementptr inbounds nuw %struct.topology_eval, ptr %21, i32 0, i32 8
  %23 = load ptr, ptr %22, align 8
  store ptr %23, ptr %14, align 8
  call void @llvm.lifetime.start.p0(i64 8, ptr %15) #4
  %24 = load ptr, ptr %14, align 8
  %25 = getelementptr inbounds nuw %struct.job_record, ptr %24, i32 0, i32 30
  %26 = load ptr, ptr %25, align 8
  store ptr %26, ptr %15, align 8
  call void @llvm.lifetime.start.p0(i64 8, ptr %16) #4
  %27 = load ptr, ptr %8, align 8
  %28 = getelementptr inbounds nuw %struct.topology_eval, ptr %27, i32 0, i32 2
  %29 = load ptr, ptr %28, align 8
  %30 = load i32, ptr %9, align 4
  %31 = sext i32 %30 to i64
  %32 = getelementptr inbounds ptr, ptr %29, i64 %31
  %33 = load ptr, ptr %32, align 8
  store ptr %33, ptr %16, align 8
  call void @llvm.lifetime.start.p0(i64 4, ptr %17) #4
  %34 = load ptr, ptr %15, align 8
  %35 = getelementptr inbounds nuw %struct.job_details_t, ptr %34, i32 0, i32 77
  %36 = load i8, ptr %35, align 8
  %37 = zext i8 %36 to i32
  %38 = and i32 %37, 1
  %39 = icmp ne i32 %38, 0
  br i1 %39, label %40, label %41

40:                                               ; preds = %6
  br label %173

41:                                               ; preds = %6
  %42 = load i32, ptr %11, align 4
  %43 = sub nsw i32 %42, 1
  %44 = icmp sgt i32 %43, 0
  br i1 %44, label %45, label %48

45:                                               ; preds = %41
  %46 = load i32, ptr %11, align 4
  %47 = sub nsw i32 %46, 1
  br label %49

48:                                               ; preds = %41
  br label %49

49:                                               ; preds = %48, %45
  %50 = phi i32 [ %47, %45 ], [ 0, %48 ]
  store i32 %50, ptr %17, align 4
  %51 = load ptr, ptr %15, align 8
  %52 = load i32, ptr %9, align 4
  %53 = call zeroext i16 @job_mgr_determine_cpus_per_core(ptr noundef %51, i32 noundef %52)
  %54 = zext i16 %53 to i32
  %55 = load i32, ptr %17, align 4
  %56 = mul nsw i32 %55, %54
  store i32 %56, ptr %17, align 4
  %57 = load ptr, ptr %8, align 8
  %58 = getelementptr inbounds nuw %struct.topology_eval, ptr %57, i32 0, i32 3
  %59 = load i16, ptr %58, align 8
  %60 = zext i16 %59 to i32
  %61 = and i32 %60, 2
  %62 = icmp ne i32 %61, 0
  br i1 %62, label %63, label %74

63:                                               ; preds = %49
  %64 = load ptr, ptr @node_record_table_ptr, align 8
  %65 = load i32, ptr %9, align 4
  %66 = sext i32 %65 to i64
  %67 = getelementptr inbounds ptr, ptr %64, i64 %66
  %68 = load ptr, ptr %67, align 8
  %69 = getelementptr inbounds nuw %struct.node_record, ptr %68, i32 0, i32 11
  %70 = load i16, ptr %69, align 2
  %71 = zext i16 %70 to i32
  %72 = load i32, ptr %17, align 4
  %73 = mul nsw i32 %72, %71
  store i32 %73, ptr %17, align 4
  br label %74

74:                                               ; preds = %63, %49
  %75 = load i32, ptr %17, align 4
  %76 = sext i32 %75 to i64
  %77 = load i64, ptr %10, align 8
  %78 = sub nsw i64 %77, %76
  store i64 %78, ptr %10, align 8
  %79 = load ptr, ptr %8, align 8
  %80 = getelementptr inbounds nuw %struct.topology_eval, ptr %79, i32 0, i32 1
  %81 = load i16, ptr %80, align 8
  %82 = zext i16 %81 to i64
  %83 = load i64, ptr %10, align 8
  %84 = icmp sgt i64 %82, %83
  br i1 %84, label %85, label %160

85:                                               ; preds = %74
  %86 = load i64, ptr %10, align 8
  %87 = load ptr, ptr %15, align 8
  %88 = getelementptr inbounds nuw %struct.job_details_t, ptr %87, i32 0, i32 49
  %89 = load i32, ptr %88, align 8
  %90 = sext i32 %89 to i64
  %91 = icmp sgt i64 %86, %90
  br i1 %91, label %92, label %94

92:                                               ; preds = %85
  %93 = load i64, ptr %10, align 8
  br label %99

94:                                               ; preds = %85
  %95 = load ptr, ptr %15, align 8
  %96 = getelementptr inbounds nuw %struct.job_details_t, ptr %95, i32 0, i32 49
  %97 = load i32, ptr %96, align 8
  %98 = sext i32 %97 to i64
  br label %99

99:                                               ; preds = %94, %92
  %100 = phi i64 [ %93, %92 ], [ %98, %94 ]
  %101 = trunc i64 %100 to i16
  %102 = load ptr, ptr %8, align 8
  %103 = getelementptr inbounds nuw %struct.topology_eval, ptr %102, i32 0, i32 1
  store i16 %101, ptr %103, align 8
  %104 = load ptr, ptr %16, align 8
  %105 = getelementptr inbounds nuw %struct.avail_res, ptr %104, i32 0, i32 4
  %106 = load i32, ptr %105, align 8
  %107 = icmp ne i32 %106, 0
  br i1 %107, label %108, label %131

108:                                              ; preds = %99
  %109 = load ptr, ptr %8, align 8
  %110 = getelementptr inbounds nuw %struct.topology_eval, ptr %109, i32 0, i32 1
  %111 = load i16, ptr %110, align 8
  %112 = zext i16 %111 to i32
  %113 = load ptr, ptr %16, align 8
  %114 = getelementptr inbounds nuw %struct.avail_res, ptr %113, i32 0, i32 4
  %115 = load i32, ptr %114, align 8
  %116 = icmp ugt i32 %112, %115
  br i1 %116, label %117, label %122

117:                                              ; preds = %108
  %118 = load ptr, ptr %8, align 8
  %119 = getelementptr inbounds nuw %struct.topology_eval, ptr %118, i32 0, i32 1
  %120 = load i16, ptr %119, align 8
  %121 = zext i16 %120 to i32
  br label %126

122:                                              ; preds = %108
  %123 = load ptr, ptr %16, align 8
  %124 = getelementptr inbounds nuw %struct.avail_res, ptr %123, i32 0, i32 4
  %125 = load i32, ptr %124, align 8
  br label %126

126:                                              ; preds = %122, %117
  %127 = phi i32 [ %121, %117 ], [ %125, %122 ]
  %128 = trunc i32 %127 to i16
  %129 = load ptr, ptr %8, align 8
  %130 = getelementptr inbounds nuw %struct.topology_eval, ptr %129, i32 0, i32 1
  store i16 %128, ptr %130, align 8
  br label %154

131:                                              ; preds = %99
  %132 = load ptr, ptr %8, align 8
  %133 = getelementptr inbounds nuw %struct.topology_eval, ptr %132, i32 0, i32 1
  %134 = load i16, ptr %133, align 8
  %135 = zext i16 %134 to i32
  %136 = load ptr, ptr %15, align 8
  %137 = getelementptr inbounds nuw %struct.job_details_t, ptr %136, i32 0, i32 40
  %138 = load i32, ptr %137, align 4
  %139 = icmp sgt i32 %135, %138
  br i1 %139, label %140, label %145

140:                                              ; preds = %131
  %141 = load ptr, ptr %8, align 8
  %142 = getelementptr inbounds nuw %struct.topology_eval, ptr %141, i32 0, i32 1
  %143 = load i16, ptr %142, align 8
  %144 = zext i16 %143 to i32
  br label %149

145:                                              ; preds = %131
  %146 = load ptr, ptr %15, align 8
  %147 = getelementptr inbounds nuw %struct.job_details_t, ptr %146, i32 0, i32 40
  %148 = load i32, ptr %147, align 4
  br label %149

149:                                              ; preds = %145, %140
  %150 = phi i32 [ %144, %140 ], [ %148, %145 ]
  %151 = trunc i32 %150 to i16
  %152 = load ptr, ptr %8, align 8
  %153 = getelementptr inbounds nuw %struct.topology_eval, ptr %152, i32 0, i32 1
  store i16 %151, ptr %153, align 8
  br label %154

154:                                              ; preds = %149, %126
  %155 = load ptr, ptr %8, align 8
  %156 = getelementptr inbounds nuw %struct.topology_eval, ptr %155, i32 0, i32 1
  %157 = load i16, ptr %156, align 8
  %158 = load ptr, ptr %16, align 8
  %159 = getelementptr inbounds nuw %struct.avail_res, ptr %158, i32 0, i32 0
  store i16 %157, ptr %159, align 8
  br label %160

160:                                              ; preds = %154, %74
  %161 = load ptr, ptr %16, align 8
  %162 = getelementptr inbounds nuw %struct.avail_res, ptr %161, i32 0, i32 0
  %163 = load i16, ptr %162, align 8
  %164 = zext i16 %163 to i32
  %165 = load ptr, ptr %16, align 8
  %166 = getelementptr inbounds nuw %struct.avail_res, ptr %165, i32 0, i32 1
  %167 = load i16, ptr %166, align 2
  %168 = zext i16 %167 to i32
  %169 = add nsw i32 %164, %168
  %170 = trunc i32 %169 to i16
  %171 = load ptr, ptr %16, align 8
  %172 = getelementptr inbounds nuw %struct.avail_res, ptr %171, i32 0, i32 2
  store i16 %170, ptr %172, align 4
  br label %173

173:                                              ; preds = %160, %40
  %174 = load i8, ptr %13, align 1, !range !8, !noundef !9
  %175 = trunc i8 %174 to i1
  br i1 %175, label %176, label %200

176:                                              ; preds = %173
  %177 = load ptr, ptr %8, align 8
  %178 = getelementptr inbounds nuw %struct.topology_eval, ptr %177, i32 0, i32 7
  %179 = load i8, ptr %178, align 1, !range !8, !noundef !9
  %180 = trunc i8 %179 to i1
  br i1 %180, label %181, label %200

181:                                              ; preds = %176
  %182 = load ptr, ptr %8, align 8
  %183 = getelementptr inbounds nuw %struct.topology_eval, ptr %182, i32 0, i32 1
  %184 = load i16, ptr %183, align 8
  %185 = zext i16 %184 to i32
  %186 = icmp ne i32 %185, 0
  br i1 %186, label %187, label %200

187:                                              ; preds = %181
  call void @llvm.lifetime.start.p0(i64 8, ptr %18) #4
  %188 = load ptr, ptr @node_record_table_ptr, align 8
  %189 = load i32, ptr %9, align 4
  %190 = sext i32 %189 to i64
  %191 = getelementptr inbounds ptr, ptr %188, i64 %190
  %192 = load ptr, ptr %191, align 8
  store ptr %192, ptr %18, align 8
  %193 = load ptr, ptr %8, align 8
  %194 = load ptr, ptr %12, align 8
  %195 = load ptr, ptr %14, align 8
  %196 = load ptr, ptr %18, align 8
  %197 = load i32, ptr %11, align 4
  %198 = load i32, ptr %9, align 4
  %199 = call zeroext i1 @eval_nodes_gres(ptr noundef %193, ptr noundef %194, ptr noundef %195, ptr noundef %196, i32 noundef %197, i32 noundef %198, i32 noundef 0)
  store i1 %199, ptr %7, align 1
  store i32 1, ptr %19, align 4
  call void @llvm.lifetime.end.p0(i64 8, ptr %18) #4
  br label %201

200:                                              ; preds = %181, %176, %173
  store i1 true, ptr %7, align 1
  store i32 1, ptr %19, align 4
  br label %201

201:                                              ; preds = %200, %187
  call void @llvm.lifetime.end.p0(i64 4, ptr %17) #4
  call void @llvm.lifetime.end.p0(i64 8, ptr %16) #4
  call void @llvm.lifetime.end.p0(i64 8, ptr %15) #4
  call void @llvm.lifetime.end.p0(i64 8, ptr %14) #4
  %202 = load i1, ptr %7, align 1
  ret i1 %202
}