; Function Attrs: nounwind uwtable
define dso_local noundef zeroext i1 @eval_nodes_cpus_to_use(ptr noundef %0, i32 noundef %1, i64 noundef %2, i32 noundef %3, ptr noundef captures(none) %4, i1 noundef zeroext %5) local_unnamed_addr #0 {
  %7 = getelementptr inbounds nuw i8, ptr %0, i64 48
  %8 = load ptr, ptr %7, align 8
  %9 = getelementptr inbounds nuw i8, ptr %8, i64 216
  %10 = load ptr, ptr %9, align 8
  %11 = getelementptr inbounds nuw i8, ptr %0, i64 16
  %12 = load ptr, ptr %11, align 8
  %13 = sext i32 %1 to i64
  %14 = getelementptr inbounds ptr, ptr %12, i64 %13
  %15 = load ptr, ptr %14, align 8
  %16 = getelementptr inbounds nuw i8, ptr %10, i64 480
  %17 = load i8, ptr %16, align 8
  %18 = and i8 %17, 1
  %.not = icmp eq i8 %18, 0
  br i1 %.not, label %19, label %63

19:                                               ; preds = %6
  %20 = tail call i32 @llvm.smax.i32(i32 %3, i32 1)
  %21 = add nsw i32 %20, -1
  %22 = tail call zeroext i16 @job_mgr_determine_cpus_per_core(ptr noundef nonnull %10, i32 noundef %1) #8
  %23 = zext i16 %22 to i32
  %24 = mul nsw i32 %21, %23
  %25 = getelementptr inbounds nuw i8, ptr %0, i64 24
  %26 = load i16, ptr %25, align 8
  %27 = and i16 %26, 2
  %.not55 = icmp eq i16 %27, 0
  br i1 %.not55, label %36, label %28

28:                                               ; preds = %19
  %29 = load ptr, ptr @node_record_table_ptr, align 8
  %30 = getelementptr inbounds ptr, ptr %29, i64 %13
  %31 = load ptr, ptr %30, align 8
  %32 = getelementptr inbounds nuw i8, ptr %31, i64 82
  %33 = load i16, ptr %32, align 2
  %34 = zext i16 %33 to i32
  %35 = mul nsw i32 %24, %34
  br label %36

36:                                               ; preds = %28, %19
  %.048 = phi i32 [ %35, %28 ], [ %24, %19 ]
  %37 = zext nneg i32 %.048 to i64
  %38 = sub nsw i64 %2, %37
  %39 = getelementptr inbounds nuw i8, ptr %0, i64 8
  %40 = load i16, ptr %39, align 8
  %41 = zext i16 %40 to i64
  %42 = icmp slt i64 %38, %41
  br i1 %42, label %43, label %._crit_edge

._crit_edge:                                      ; preds = %36
  %.pre = load i16, ptr %15, align 8
  br label %57

43:                                               ; preds = %36
  %44 = getelementptr inbounds nuw i8, ptr %10, i64 304
  %45 = load i32, ptr %44, align 8
  %46 = sext i32 %45 to i64
  %. = tail call i64 @llvm.smax.i64(i64 %38, i64 %46)
  %47 = trunc i64 %. to i16
  store i16 %47, ptr %39, align 8
  %48 = getelementptr inbounds nuw i8, ptr %15, i64 16
  %49 = load i32, ptr %48, align 8
  %.not56 = icmp eq i32 %49, 0
  %50 = trunc i64 %. to i32
  %51 = and i32 %50, 65535
  br i1 %.not56, label %53, label %52

52:                                               ; preds = %43
  %.58 = tail call i32 @llvm.umax.i32(i32 %51, i32 %49)
  br label %56

53:                                               ; preds = %43
  %54 = getelementptr inbounds nuw i8, ptr %10, i64 276
  %55 = load i32, ptr %54, align 4
  %.59 = tail call i32 @llvm.smax.i32(i32 %51, i32 %55)
  br label %56

56:                                               ; preds = %53, %52
  %storemerge.in = phi i32 [ %.59, %53 ], [ %.58, %52 ]
  %storemerge = trunc i32 %storemerge.in to i16
  store i16 %storemerge, ptr %39, align 8
  store i16 %storemerge, ptr %15, align 8
  br label %57

57:                                               ; preds = %._crit_edge, %56
  %58 = phi i16 [ %.pre, %._crit_edge ], [ %storemerge, %56 ]
  %59 = getelementptr inbounds nuw i8, ptr %15, i64 2
  %60 = load i16, ptr %59, align 2
  %61 = add i16 %60, %58
  %62 = getelementptr inbounds nuw i8, ptr %15, i64 4
  store i16 %61, ptr %62, align 4
  br label %63

63:                                               ; preds = %6, %57
  br i1 %5, label %64, label %76

64:                                               ; preds = %63
  %65 = getelementptr inbounds nuw i8, ptr %0, i64 41
  %66 = load i8, ptr %65, align 1, !range !14, !noundef !15
  %67 = trunc nuw i8 %66 to i1
  br i1 %67, label %68, label %76

68:                                               ; preds = %64
  %69 = getelementptr inbounds nuw i8, ptr %0, i64 8
  %70 = load i16, ptr %69, align 8
  %.not57 = icmp eq i16 %70, 0
  br i1 %.not57, label %76, label %71

71:                                               ; preds = %68
  %72 = load ptr, ptr @node_record_table_ptr, align 8
  %73 = getelementptr inbounds ptr, ptr %72, i64 %13
  %74 = load ptr, ptr %73, align 8
  %75 = tail call zeroext i1 @eval_nodes_gres(ptr noundef nonnull %0, ptr noundef %4, ptr noundef nonnull %8, ptr noundef %74, i32 noundef %3, i32 noundef %1, i32 noundef 0)
  br label %76

76:                                               ; preds = %63, %64, %68, %71
  %.0 = phi i1 [ %75, %71 ], [ true, %68 ], [ true, %64 ], [ true, %63 ]
  ret i1 %.0
}